#include <math.h>
#include <stdio.h>
#include <stdlib.h>
#include <string.h>


int main()
{
	char input[20]={0},i=0,len;
	while(scanf("%c",&input[i])!=-1&&input[i]!='\n')
		i++;
	for(i--;i>=0;i--)
		printf("%d",input[i]-'0');
	printf("\n");
}