; ModuleID = '56/1762.c'
source_filename = "56/1762.c"
target datalayout = "e-m:e-p270:32:32-p271:32:32-p272:64:64-i64:64-f80:128-n8:16:32:64-S128"
target triple = "x86_64-pc-linux-gnu"

@.str = private unnamed_addr constant [3 x i8] c"%c\00", align 1
@.str.1 = private unnamed_addr constant [3 x i8] c"%d\00", align 1
@.str.2 = private unnamed_addr constant [2 x i8] c"\0A\00", align 1

; Function Attrs: noinline nounwind uwtable
define dso_local i32 @main() #0 {
  %1 = alloca i32, align 4
  %2 = alloca [20 x i8], align 16
  %3 = alloca i8, align 1
  %4 = alloca i8, align 1
  store i32 0, i32* %1, align 4
  %5 = bitcast [20 x i8]* %2 to i8*
  call void @llvm.memset.p0i8.i64(i8* align 16 %5, i8 0, i64 20, i1 false)
  store i8 0, i8* %3, align 1
  br label %6

6:                                                ; preds = %21, %0
  %7 = load i8, i8* %3, align 1
  %8 = sext i8 %7 to i64
  %9 = getelementptr inbounds [20 x i8], [20 x i8]* %2, i64 0, i64 %8
  %10 = call i32 (i8*, ...) @__isoc99_scanf(i8* getelementptr inbounds ([3 x i8], [3 x i8]* @.str, i64 0, i64 0), i8* %9)
  %11 = icmp ne i32 %10, -1
  br i1 %11, label %12, label %19

12:                                               ; preds = %6
  %13 = load i8, i8* %3, align 1
  %14 = sext i8 %13 to i64
  %15 = getelementptr inbounds [20 x i8], [20 x i8]* %2, i64 0, i64 %14
  %16 = load i8, i8* %15, align 1
  %17 = sext i8 %16 to i32
  %18 = icmp ne i32 %17, 10
  br label %19

19:                                               ; preds = %12, %6
  %20 = phi i1 [ false, %6 ], [ %18, %12 ]
  br i1 %20, label %21, label %24

21:                                               ; preds = %19
  %22 = load i8, i8* %3, align 1
  %23 = add i8 %22, 1
  store i8 %23, i8* %3, align 1
  br label %6

24:                                               ; preds = %19
  %25 = load i8, i8* %3, align 1
  %26 = add i8 %25, -1
  store i8 %26, i8* %3, align 1
  br label %27

27:                                               ; preds = %39, %24
  %28 = load i8, i8* %3, align 1
  %29 = sext i8 %28 to i32
  %30 = icmp sge i32 %29, 0
  br i1 %30, label %31, label %42

31:                                               ; preds = %27
  %32 = load i8, i8* %3, align 1
  %33 = sext i8 %32 to i64
  %34 = getelementptr inbounds [20 x i8], [20 x i8]* %2, i64 0, i64 %33
  %35 = load i8, i8* %34, align 1
  %36 = sext i8 %35 to i32
  %37 = sub nsw i32 %36, 48
  %38 = call i32 (i8*, ...) @printf(i8* getelementptr inbounds ([3 x i8], [3 x i8]* @.str.1, i64 0, i64 0), i32 %37)
  br label %39

39:                                               ; preds = %31
  %40 = load i8, i8* %3, align 1
  %41 = add i8 %40, -1
  store i8 %41, i8* %3, align 1
  br label %27

42:                                               ; preds = %27
  %43 = call i32 (i8*, ...) @printf(i8* getelementptr inbounds ([2 x i8], [2 x i8]* @.str.2, i64 0, i64 0))
  %44 = load i32, i32* %1, align 4
  ret i32 %44
}

; Function Attrs: argmemonly nounwind willreturn
declare void @llvm.memset.p0i8.i64(i8* nocapture writeonly, i8, i64, i1 immarg) #1

declare dso_local i32 @__isoc99_scanf(i8*, ...) #2

declare dso_local i32 @printf(i8*, ...) #2


!llvm.module.flags = !{!0}
!llvm.ident = !{!1}

!0 = !{i32 1, !"wchar_size", i32 4}
!1 = !{!"clang version 10.0.0-4ubuntu1 "}
